target datalayout = "e-m:e-p270:32:32-p271:32:32-p272:64:64-i64:64-i128:128-f80:128-n8:16:32:64-S128"
target triple = "x86_64-pc-linux-gnu"

%"class.boost::unit_test::basic_cstring" = type { ptr, ptr }
%"struct.boost::unit_test::(anonymous namespace)::unit_test_log_data_helper_impl" = type <{ i8, [3 x i8], i32, ptr, %"class.boost::shared_ptr", %"class.boost::shared_ptr.8", i8, [7 x i8] }>
%"class.boost::shared_ptr" = type { ptr, %"class.boost::detail::shared_count" }
%"class.boost::detail::shared_count" = type { ptr }
%"class.boost::shared_ptr.8" = type { ptr, %"class.boost::detail::shared_count" }
%"struct.boost::unit_test::framework::context_generator" = type { i32 }

@_ZN5boost9unit_test13basic_cstringIKcE4nullE = linkonce_odr constant i8 0, comdat, align 1

; Function Attrs: inlinehint mustprogress nounwind uwtable
define linkonce_odr hidden noundef ptr @_ZN5boost9unit_test13basic_cstringIKcE8null_strEv() #6 comdat align 2 {
  ret ptr @_ZN5boost9unit_test13basic_cstringIKcE4nullE
}

; Function Attrs: inlinehint mustprogress nounwind uwtable
define linkonce_odr hidden void @_ZN5boost9unit_test13basic_cstringIKcEC2ERKS3_(ptr noundef nonnull align 8 dereferenceable(16) %0, ptr noundef nonnull align 8 dereferenceable(16) %1) unnamed_addr #6 comdat align 2 {
  %3 = alloca ptr, align 8
  %4 = alloca ptr, align 8
  store ptr %0, ptr %3, align 8, !tbaa !3
  store ptr %1, ptr %4, align 8, !tbaa !3
  %5 = load ptr, ptr %3, align 8
  %6 = getelementptr inbounds nuw %"class.boost::unit_test::basic_cstring", ptr %5, i32 0, i32 0
  %7 = load ptr, ptr %4, align 8, !tbaa !3
  %8 = getelementptr inbounds nuw %"class.boost::unit_test::basic_cstring", ptr %7, i32 0, i32 0
  %9 = load ptr, ptr %8, align 8, !tbaa !30
  store ptr %9, ptr %6, align 8, !tbaa !30
  %10 = getelementptr inbounds nuw %"class.boost::unit_test::basic_cstring", ptr %5, i32 0, i32 1
  %11 = load ptr, ptr %4, align 8, !tbaa !3
  %12 = getelementptr inbounds nuw %"class.boost::unit_test::basic_cstring", ptr %11, i32 0, i32 1
  %13 = load ptr, ptr %12, align 8, !tbaa !31
  store ptr %13, ptr %10, align 8, !tbaa !31
  ret void
}

; Function Attrs: inlinehint mustprogress nounwind uwtable
define linkonce_odr hidden noundef zeroext i1 @_ZNK5boost9unit_test13basic_cstringIKcE8is_emptyEv(ptr noundef nonnull align 8 dereferenceable(16) %0) #6 comdat align 2 {
  %2 = alloca ptr, align 8
  store ptr %0, ptr %2, align 8, !tbaa !3
  %3 = load ptr, ptr %2, align 8
  %4 = getelementptr inbounds nuw %"class.boost::unit_test::basic_cstring", ptr %3, i32 0, i32 1
  %5 = load ptr, ptr %4, align 8, !tbaa !31
  %6 = getelementptr inbounds nuw %"class.boost::unit_test::basic_cstring", ptr %3, i32 0, i32 0
  %7 = load ptr, ptr %6, align 8, !tbaa !30
  %8 = icmp eq ptr %5, %7
  ret i1 %8
}

; Function Attrs: inlinehint mustprogress nounwind uwtable
define linkonce_odr hidden noundef nonnull align 8 dereferenceable(16) ptr @_ZN5boost9unit_test13basic_cstringIKcEaSERKS3_(ptr noundef nonnull align 8 dereferenceable(16) %0, ptr noundef nonnull align 8 dereferenceable(16) %1) #6 comdat align 2 {
  %3 = alloca ptr, align 8
  %4 = alloca ptr, align 8
  store ptr %0, ptr %3, align 8, !tbaa !3
  store ptr %1, ptr %4, align 8, !tbaa !3
  %5 = load ptr, ptr %3, align 8
  %6 = load ptr, ptr %4, align 8, !tbaa !3
  %7 = getelementptr inbounds nuw %"class.boost::unit_test::basic_cstring", ptr %6, i32 0, i32 0
  %8 = load ptr, ptr %7, align 8, !tbaa !30
  %9 = getelementptr inbounds nuw %"class.boost::unit_test::basic_cstring", ptr %5, i32 0, i32 0
  store ptr %8, ptr %9, align 8, !tbaa !30
  %10 = load ptr, ptr %4, align 8, !tbaa !3
  %11 = getelementptr inbounds nuw %"class.boost::unit_test::basic_cstring", ptr %10, i32 0, i32 1
  %12 = load ptr, ptr %11, align 8, !tbaa !31
  %13 = getelementptr inbounds nuw %"class.boost::unit_test::basic_cstring", ptr %5, i32 0, i32 1
  store ptr %12, ptr %13, align 8, !tbaa !31
  ret ptr %5
}

; Function Attrs: mustprogress nounwind uwtable
define internal noundef nonnull align 8 dereferenceable(8) ptr @_ZN5boost9unit_test12_GLOBAL__N_130unit_test_log_data_helper_impl6streamEv(ptr noundef nonnull align 8 dereferenceable(49) %0) #4 align 2 {
  %2 = alloca ptr, align 8
  store ptr %0, ptr %2, align 8, !tbaa !3
  %3 = load ptr, ptr %2, align 8
  %4 = getelementptr inbounds nuw %"struct.boost::unit_test::(anonymous namespace)::unit_test_log_data_helper_impl", ptr %3, i32 0, i32 3
  %5 = load ptr, ptr %4, align 8, !tbaa !56
  ret ptr %5
}

; Function Attrs: mustprogress nounwind uwtable
define linkonce_odr hidden noundef ptr @_ZNK5boost10shared_ptrINS_9unit_test23unit_test_log_formatterEEptEv(ptr noundef nonnull align 8 dereferenceable(16) %0) #4 comdat align 2 {
  %2 = alloca ptr, align 8
  store ptr %0, ptr %2, align 8, !tbaa !3
  %3 = load ptr, ptr %2, align 8
  %4 = getelementptr inbounds nuw %"class.boost::shared_ptr.8", ptr %3, i32 0, i32 0
  %5 = load ptr, ptr %4, align 8, !tbaa !55
  ret ptr %5
}

; Function Attrs: inlinehint mustprogress uwtable
define linkonce_odr hidden void @_ZN5boost9unit_test13basic_cstringIKcEC2Ev(ptr noundef nonnull align 8 dereferenceable(16) %0) unnamed_addr #9 comdat align 2 {
  %2 = alloca ptr, align 8
  store ptr %0, ptr %2, align 8, !tbaa !3
  %3 = load ptr, ptr %2, align 8
  %4 = getelementptr inbounds nuw %"class.boost::unit_test::basic_cstring", ptr %3, i32 0, i32 0
  %5 = call noundef ptr @_ZN5boost9unit_test13basic_cstringIKcE8null_strEv()
  store ptr %5, ptr %4, align 8, !tbaa !30
  %6 = getelementptr inbounds nuw %"class.boost::unit_test::basic_cstring", ptr %3, i32 0, i32 1
  %7 = getelementptr inbounds nuw %"class.boost::unit_test::basic_cstring", ptr %3, i32 0, i32 0
  %8 = load ptr, ptr %7, align 8, !tbaa !30
  store ptr %8, ptr %6, align 8, !tbaa !31
  ret void
}

; Function Attrs: mustprogress uwtable
define internal void @_ZN5boost9unit_test12_GLOBAL__N_117log_entry_contextENS0_9log_levelERNS1_30unit_test_log_data_helper_implE(i32 noundef %0, ptr noundef nonnull align 8 dereferenceable(49) %1) #5 {
  %3 = alloca i32, align 4
  %4 = alloca ptr, align 8
  %5 = alloca ptr, align 8
  %6 = alloca %"struct.boost::unit_test::framework::context_generator", align 4
  %7 = alloca i32, align 4
  %8 = alloca %"class.boost::unit_test::basic_cstring", align 8
  %9 = alloca %"class.boost::unit_test::basic_cstring", align 8
  %10 = alloca %"class.boost::unit_test::basic_cstring", align 8
  store i32 %0, ptr %3, align 4, !tbaa !37
  store ptr %1, ptr %4, align 8, !tbaa !3
  call void @llvm.lifetime.start.p0(i64 8, ptr %5) #3
  call void @llvm.lifetime.start.p0(i64 4, ptr %6) #3
  %11 = call i32 @_ZN5boost9unit_test9framework11get_contextEv()
  %12 = getelementptr inbounds nuw %"struct.boost::unit_test::framework::context_generator", ptr %6, i32 0, i32 0
  store i32 %11, ptr %12, align 4
  store ptr %6, ptr %5, align 8, !tbaa !3
  %13 = load ptr, ptr %5, align 8, !tbaa !3
  %14 = call noundef zeroext i1 @_ZNK5boost9unit_test9framework17context_generator8is_emptyEv(ptr noundef nonnull align 4 dereferenceable(4) %13)
  br i1 %14, label %15, label %16

15:                                               ; preds = %2
  store i32 1, ptr %7, align 4
  br label %51

16:                                               ; preds = %2
  call void @llvm.lifetime.start.p0(i64 16, ptr %8) #3
  call void @_ZN5boost9unit_test13basic_cstringIKcEC2Ev(ptr noundef nonnull align 8 dereferenceable(16) %8)
  %17 = load ptr, ptr %4, align 8, !tbaa !3
  %18 = getelementptr inbounds nuw %"struct.boost::unit_test::(anonymous namespace)::unit_test_log_data_helper_impl", ptr %17, i32 0, i32 5
  %19 = call noundef ptr @_ZNK5boost10shared_ptrINS_9unit_test23unit_test_log_formatterEEptEv(ptr noundef nonnull align 8 dereferenceable(16) %18) #3
  %20 = load ptr, ptr %4, align 8, !tbaa !3
  %21 = call noundef nonnull align 8 dereferenceable(8) ptr @_ZN5boost9unit_test12_GLOBAL__N_130unit_test_log_data_helper_impl6streamEv(ptr noundef nonnull align 8 dereferenceable(49) %20)
  %22 = load i32, ptr %3, align 4, !tbaa !37
  %23 = load ptr, ptr %19, align 8, !tbaa !25
  %24 = getelementptr inbounds ptr, ptr %23, i64 17
  %25 = load ptr, ptr %24, align 8
  call void %25(ptr noundef nonnull align 8 dereferenceable(12) %19, ptr noundef nonnull align 8 dereferenceable(8) %21, i32 noundef %22)
  br label %26

26:                                               ; preds = %31, %16
  call void @llvm.lifetime.start.p0(i64 16, ptr %9) #3
  %27 = load ptr, ptr %5, align 8, !tbaa !3
  call void @_ZNK5boost9unit_test9framework17context_generator4nextEv(ptr dead_on_unwind writable sret(%"class.boost::unit_test::basic_cstring") align 8 %9, ptr noundef nonnull align 4 dereferenceable(4) %27)
  %28 = call noundef nonnull align 8 dereferenceable(16) ptr @_ZN5boost9unit_test13basic_cstringIKcEaSERKS3_(ptr noundef nonnull align 8 dereferenceable(16) %8, ptr noundef nonnull align 8 dereferenceable(16) %9)
  %29 = call noundef zeroext i1 @_ZNK5boost9unit_test13basic_cstringIKcE8is_emptyEv(ptr noundef nonnull align 8 dereferenceable(16) %28)
  %30 = xor i1 %29, true
  call void @llvm.lifetime.end.p0(i64 16, ptr %9) #3
  br i1 %30, label %31, label %41

31:                                               ; preds = %26
  %32 = load ptr, ptr %4, align 8, !tbaa !3
  %33 = getelementptr inbounds nuw %"struct.boost::unit_test::(anonymous namespace)::unit_test_log_data_helper_impl", ptr %32, i32 0, i32 5
  %34 = call noundef ptr @_ZNK5boost10shared_ptrINS_9unit_test23unit_test_log_formatterEEptEv(ptr noundef nonnull align 8 dereferenceable(16) %33) #3
  %35 = load ptr, ptr %4, align 8, !tbaa !3
  %36 = call noundef nonnull align 8 dereferenceable(8) ptr @_ZN5boost9unit_test12_GLOBAL__N_130unit_test_log_data_helper_impl6streamEv(ptr noundef nonnull align 8 dereferenceable(49) %35)
  %37 = load i32, ptr %3, align 4, !tbaa !37
  call void @_ZN5boost9unit_test13basic_cstringIKcEC2ERKS3_(ptr noundef nonnull align 8 dereferenceable(16) %10, ptr noundef nonnull align 8 dereferenceable(16) %8)
  %38 = load ptr, ptr %34, align 8, !tbaa !25
  %39 = getelementptr inbounds ptr, ptr %38, i64 18
  %40 = load ptr, ptr %39, align 8
  call void %40(ptr noundef nonnull align 8 dereferenceable(12) %34, ptr noundef nonnull align 8 dereferenceable(8) %36, i32 noundef %37, ptr noundef %10)
  br label %26, !llvm.loop !74

41:                                               ; preds = %26
  %42 = load ptr, ptr %4, align 8, !tbaa !3
  %43 = getelementptr inbounds nuw %"struct.boost::unit_test::(anonymous namespace)::unit_test_log_data_helper_impl", ptr %42, i32 0, i32 5
  %44 = call noundef ptr @_ZNK5boost10shared_ptrINS_9unit_test23unit_test_log_formatterEEptEv(ptr noundef nonnull align 8 dereferenceable(16) %43) #3
  %45 = load ptr, ptr %4, align 8, !tbaa !3
  %46 = call noundef nonnull align 8 dereferenceable(8) ptr @_ZN5boost9unit_test12_GLOBAL__N_130unit_test_log_data_helper_impl6streamEv(ptr noundef nonnull align 8 dereferenceable(49) %45)
  %47 = load i32, ptr %3, align 4, !tbaa !37
  %48 = load ptr, ptr %44, align 8, !tbaa !25
  %49 = getelementptr inbounds ptr, ptr %48, i64 19
  %50 = load ptr, ptr %49, align 8
  call void %50(ptr noundef nonnull align 8 dereferenceable(12) %44, ptr noundef nonnull align 8 dereferenceable(8) %46, i32 noundef %47)
  call void @llvm.lifetime.end.p0(i64 16, ptr %8) #3
  store i32 0, ptr %7, align 4
  br label %51

51:                                               ; preds = %41, %15
  call void @llvm.lifetime.end.p0(i64 4, ptr %6) #3
  call void @llvm.lifetime.end.p0(i64 8, ptr %5) #3
  %52 = load i32, ptr %7, align 4
  switch i32 %52, label %54 [
    i32 0, label %53
    i32 1, label %53
  ]

53:                                               ; preds = %51, %51
  ret void

54:                                               ; preds = %51
  unreachable
}