; Function Attrs: mustprogress uwtable
define internal fastcc void @_ZN5boost9unit_test12_GLOBAL__N_117log_entry_contextENS0_9log_levelERNS1_30unit_test_log_data_helper_implE(i32 noundef %0, ptr nocapture noundef nonnull readonly align 8 dereferenceable(49) %1) unnamed_addr #4 {
  %3 = alloca %"struct.boost::unit_test::framework::context_generator", align 4
  %4 = alloca %"class.boost::unit_test::basic_cstring", align 8
  %5 = alloca %"class.boost::unit_test::basic_cstring", align 8
  call void @llvm.lifetime.start.p0(i64 4, ptr nonnull %3) #27
  %6 = tail call i32 @_ZN5boost9unit_test9framework11get_contextEv()
  store i32 %6, ptr %3, align 4
  %7 = call noundef zeroext i1 @_ZNK5boost9unit_test9framework17context_generator8is_emptyEv(ptr noundef nonnull align 4 dereferenceable(4) %3)
  br i1 %7, label %34, label %8

8:                                                ; preds = %2
  %9 = getelementptr inbounds nuw i8, ptr %1, i64 32
  %10 = load ptr, ptr %9, align 8, !tbaa !30
  %11 = getelementptr inbounds i8, ptr %1, i64 8
  %.val11 = load ptr, ptr %11, align 8, !tbaa !35
  %12 = load ptr, ptr %10, align 8, !tbaa !33
  %13 = getelementptr inbounds i8, ptr %12, i64 136
  %14 = load ptr, ptr %13, align 8
  call void %14(ptr noundef nonnull align 8 dereferenceable(12) %10, ptr noundef nonnull align 8 dereferenceable(8) %.val11, i32 noundef %0)
  call void @llvm.lifetime.start.p0(i64 16, ptr nonnull %4) #27
  call void @_ZNK5boost9unit_test9framework17context_generator4nextEv(ptr dead_on_unwind nonnull writable sret(%"class.boost::unit_test::basic_cstring") align 8 %4, ptr noundef nonnull align 4 dereferenceable(4) %3)
  %15 = load ptr, ptr %4, align 8, !tbaa !41
  %16 = getelementptr inbounds nuw i8, ptr %4, i64 8
  %17 = load ptr, ptr %16, align 8, !tbaa !42
  %18 = icmp eq ptr %17, %15
  call void @llvm.lifetime.end.p0(i64 16, ptr nonnull %4) #27
  br i1 %18, label %._crit_edge, label %.lr.ph

.lr.ph:                                           ; preds = %8
  %19 = getelementptr inbounds nuw i8, ptr %5, i64 8
  br label %20

20:                                               ; preds = %.lr.ph, %20
  %21 = phi ptr [ %17, %.lr.ph ], [ %28, %20 ]
  %22 = phi ptr [ %15, %.lr.ph ], [ %27, %20 ]
  %23 = load ptr, ptr %9, align 8, !tbaa !30
  %.val10 = load ptr, ptr %11, align 8, !tbaa !35
  store ptr %22, ptr %5, align 8, !tbaa !41
  store ptr %21, ptr %19, align 8, !tbaa !42
  %24 = load ptr, ptr %23, align 8, !tbaa !33
  %25 = getelementptr inbounds i8, ptr %24, i64 144
  %26 = load ptr, ptr %25, align 8
  call void %26(ptr noundef nonnull align 8 dereferenceable(12) %23, ptr noundef nonnull align 8 dereferenceable(8) %.val10, i32 noundef %0, ptr noundef nonnull %5)
  call void @llvm.lifetime.start.p0(i64 16, ptr nonnull %4) #27
  call void @_ZNK5boost9unit_test9framework17context_generator4nextEv(ptr dead_on_unwind nonnull writable sret(%"class.boost::unit_test::basic_cstring") align 8 %4, ptr noundef nonnull align 4 dereferenceable(4) %3)
  %27 = load ptr, ptr %4, align 8, !tbaa !41
  %28 = load ptr, ptr %16, align 8, !tbaa !42
  %29 = icmp eq ptr %28, %27
  call void @llvm.lifetime.end.p0(i64 16, ptr nonnull %4) #27
  br i1 %29, label %._crit_edge, label %20, !llvm.loop !97

._crit_edge:                                      ; preds = %20, %8
  %30 = load ptr, ptr %9, align 8, !tbaa !30
  %.val = load ptr, ptr %11, align 8, !tbaa !35
  %31 = load ptr, ptr %30, align 8, !tbaa !33
  %32 = getelementptr inbounds i8, ptr %31, i64 152
  %33 = load ptr, ptr %32, align 8
  call void %33(ptr noundef nonnull align 8 dereferenceable(12) %30, ptr noundef nonnull align 8 dereferenceable(8) %.val, i32 noundef %0)
  br label %34

34:                                               ; preds = %2, %._crit_edge
  call void @llvm.lifetime.end.p0(i64 4, ptr nonnull %3) #27
  ret void
}